; Function Attrs: nounwind uwtable
define dso_local void @bioCreateFsyncJob(i32 noundef %0, i64 noundef %1, i32 noundef %2) local_unnamed_addr #0 {
  %4 = tail call noalias dereferenceable_or_null(32) ptr @zmalloc(i64 noundef 32) #15
  %5 = getelementptr inbounds nuw i8, ptr %4, i64 4
  store i32 %0, ptr %5, align 4, !tbaa !61
  %6 = getelementptr inbounds nuw i8, ptr %4, i64 8
  store i64 %1, ptr %6, align 8, !tbaa !61
  %7 = getelementptr inbounds nuw i8, ptr %4, i64 16
  %8 = trunc i32 %2 to i8
  %9 = load i8, ptr %7, align 8
  %10 = shl i8 %8, 1
  %11 = and i8 %10, 2
  %12 = and i8 %9, -3
  %13 = or disjoint i8 %12, %11
  store i8 %13, ptr %7, align 8
  store i32 1, ptr %4, align 8, !tbaa !61
  %14 = tail call i32 @pthread_mutex_lock(ptr noundef nonnull getelementptr inbounds nuw (i8, ptr @bio_mutex, i64 40)) #11
  %15 = load ptr, ptr getelementptr inbounds nuw (i8, ptr @bio_jobs, i64 8), align 8, !tbaa !5
  %16 = tail call ptr @listAddNodeTail(ptr noundef %15, ptr noundef nonnull %4) #11
  %17 = load i64, ptr getelementptr inbounds nuw (i8, ptr @bio_jobs_counter, i64 8), align 8, !tbaa !43
  %18 = add i64 %17, 1
  store i64 %18, ptr getelementptr inbounds nuw (i8, ptr @bio_jobs_counter, i64 8), align 8, !tbaa !43
  %19 = tail call i32 @pthread_cond_signal(ptr noundef nonnull getelementptr inbounds nuw (i8, ptr @bio_newjob_cond, i64 48)) #11
  %20 = tail call i32 @pthread_mutex_unlock(ptr noundef nonnull getelementptr inbounds nuw (i8, ptr @bio_mutex, i64 40)) #11
  ret void
}